target datalayout = "e-m:e-p270:32:32-p271:32:32-p272:64:64-i64:64-i128:128-f80:128-n8:16:32:64-S128"
target triple = "x86_64-pc-linux-gnu"

%struct.expert_field = type { i32, i32 }

@ei_gsm_a_bssmap_extraneous_data = internal global %struct.expert_field zeroinitializer, align 4

; Function Attrs: null_pointer_is_valid sspstrong uwtable
define internal void @bssmap_lcls_notif(ptr noundef %0, ptr noundef %1, ptr noundef %2, i32 noundef %3, i32 noundef %4) #1 {
  %6 = alloca ptr, align 8
  %7 = alloca ptr, align 8
  %8 = alloca ptr, align 8
  %9 = alloca i32, align 4
  %10 = alloca i32, align 4
  %11 = alloca i32, align 4
  %12 = alloca i32, align 4
  %13 = alloca i32, align 4
  %14 = alloca i32, align 4
  store ptr %0, ptr %6, align 8
  store ptr %1, ptr %7, align 8
  store ptr %2, ptr %8, align 8
  store i32 %3, ptr %9, align 4
  store i32 %4, ptr %10, align 4
  call void @llvm.lifetime.start.p0(i64 4, ptr %11) #5
  call void @llvm.lifetime.start.p0(i64 4, ptr %12) #5
  call void @llvm.lifetime.start.p0(i64 4, ptr %13) #5
  %15 = load i32, ptr %9, align 4
  store i32 %15, ptr %11, align 4
  %16 = load i32, ptr %10, align 4
  store i32 %16, ptr %13, align 4
  %17 = load i32, ptr %13, align 4
  %18 = icmp sle i32 %17, 0
  br i1 %18, label %19, label %20

19:                                               ; preds = %5
  store i32 1, ptr %14, align 4
  br label %70

20:                                               ; preds = %5
  %21 = load ptr, ptr %6, align 8
  %22 = load ptr, ptr %7, align 8
  %23 = load ptr, ptr %8, align 8
  %24 = load i32, ptr %11, align 4
  %25 = call zeroext i16 @elem_tv(ptr noundef %21, ptr noundef %22, ptr noundef %23, i8 noundef zeroext -115, i32 noundef 0, i32 noundef 141, i32 noundef %24, ptr noundef null)
  %26 = zext i16 %25 to i32
  store i32 %26, ptr %12, align 4
  %27 = icmp ugt i32 %26, 0
  br i1 %27, label %28, label %35

28:                                               ; preds = %20
  %29 = load i32, ptr %12, align 4
  %30 = load i32, ptr %11, align 4
  %31 = add i32 %30, %29
  store i32 %31, ptr %11, align 4
  %32 = load i32, ptr %12, align 4
  %33 = load i32, ptr %13, align 4
  %34 = sub i32 %33, %32
  store i32 %34, ptr %13, align 4
  br label %35

35:                                               ; preds = %28, %20
  %36 = load i32, ptr %13, align 4
  %37 = icmp sle i32 %36, 0
  br i1 %37, label %38, label %39

38:                                               ; preds = %35
  store i32 1, ptr %14, align 4
  br label %70

39:                                               ; preds = %35
  %40 = load ptr, ptr %6, align 8
  %41 = load ptr, ptr %7, align 8
  %42 = load ptr, ptr %8, align 8
  %43 = load i32, ptr %11, align 4
  %44 = call zeroext i16 @elem_t(ptr noundef %40, ptr noundef %41, ptr noundef %42, i8 noundef zeroext -114, i32 noundef 0, i32 noundef 142, i32 noundef %43, ptr noundef null)
  %45 = zext i16 %44 to i32
  store i32 %45, ptr %12, align 4
  %46 = icmp ugt i32 %45, 0
  br i1 %46, label %47, label %54

47:                                               ; preds = %39
  %48 = load i32, ptr %12, align 4
  %49 = load i32, ptr %11, align 4
  %50 = add i32 %49, %48
  store i32 %50, ptr %11, align 4
  %51 = load i32, ptr %12, align 4
  %52 = load i32, ptr %13, align 4
  %53 = sub i32 %52, %51
  store i32 %53, ptr %13, align 4
  br label %54

54:                                               ; preds = %47, %39
  %55 = load i32, ptr %13, align 4
  %56 = icmp ugt i32 %55, 0
  br i1 %56, label %57, label %69

57:                                               ; preds = %54
  %58 = load ptr, ptr %7, align 8
  %59 = load ptr, ptr %8, align 8
  %60 = load ptr, ptr %6, align 8
  %61 = load i32, ptr %11, align 4
  %62 = load i32, ptr %13, align 4
  %63 = sub i32 %62, 0
  %64 = call ptr @proto_tree_add_expert(ptr noundef %58, ptr noundef %59, ptr noundef @ei_gsm_a_bssmap_extraneous_data, ptr noundef %60, i32 noundef %61, i32 noundef %63)
  %65 = load i32, ptr %13, align 4
  %66 = sub i32 %65, 0
  %67 = load i32, ptr %11, align 4
  %68 = add i32 %67, %66
  store i32 %68, ptr %11, align 4
  br label %69

69:                                               ; preds = %57, %54
  store i32 0, ptr %14, align 4
  br label %70

70:                                               ; preds = %69, %38, %19
  call void @llvm.lifetime.end.p0(i64 4, ptr %13) #5
  call void @llvm.lifetime.end.p0(i64 4, ptr %12) #5
  call void @llvm.lifetime.end.p0(i64 4, ptr %11) #5
  %71 = load i32, ptr %14, align 4
  switch i32 %71, label %73 [
    i32 0, label %72
    i32 1, label %72
  ]

72:                                               ; preds = %70, %70
  ret void

73:                                               ; preds = %70
  unreachable
}