; Function Attrs: null_pointer_is_valid sspstrong uwtable
define internal void @bssmap_lcls_notif(ptr noundef %0, ptr noundef %1, ptr noundef %2, i32 noundef %3, i32 noundef %4) #1 {
  %6 = icmp slt i32 %4, 1
  br i1 %6, label %20, label %7

7:                                                ; preds = %5
  %8 = tail call zeroext i16 @elem_tv(ptr noundef %0, ptr noundef %1, ptr noundef %2, i8 noundef zeroext -115, i32 noundef 0, i32 noundef 141, i32 noundef %3, ptr noundef null)
  %9 = zext i16 %8 to i32
  %10 = sub nsw i32 %4, %9
  %11 = icmp slt i32 %10, 1
  br i1 %11, label %20, label %12

12:                                               ; preds = %7
  %13 = add i32 %3, %9
  %14 = tail call zeroext i16 @elem_t(ptr noundef %0, ptr noundef %1, ptr noundef %2, i8 noundef zeroext -114, i32 noundef 0, i32 noundef 142, i32 noundef %13, ptr noundef null)
  %15 = zext i16 %14 to i32
  %.not33 = icmp eq i32 %10, %15
  br i1 %.not33, label %20, label %16

16:                                               ; preds = %12
  %17 = sub nsw i32 %10, %15
  %18 = add i32 %13, %15
  %19 = tail call ptr @proto_tree_add_expert(ptr noundef %1, ptr noundef %2, ptr noundef nonnull @ei_gsm_a_bssmap_extraneous_data, ptr noundef %0, i32 noundef %18, i32 noundef %17)
  br label %20

20:                                               ; preds = %12, %16, %7, %5
  ret void
}